Certificate:
    Data:
        Version: 3 (0x2)
        Serial Number: 1 (0x1)
    Signature Algorithm: sha256WithRSAEncryption
        Issuer: C=BA, ST=RS, L=BL, O=ETF, OU=ETFBL, CN=ETFBL/emailAddress=ca@etfbl.net
        Validity
            Not Before: Mar  5 21:52:00 2018 GMT
            Not After : Mar  5 21:52:00 2019 GMT
        Subject: C=BA, ST=RS, O=ETF, OU=ETFBL, CN=etfbl/emailAddress=app@etfbl.net
        Subject Public Key Info:
            Public Key Algorithm: rsaEncryption
                Public-Key: (2048 bit)
                Modulus:
                    00:cf:c1:cb:a5:2b:c4:de:87:a9:75:15:e4:ee:34:
                    78:66:67:b2:e3:d9:56:c2:b1:0b:f3:2d:f8:41:fe:
                    78:65:8e:2e:0c:b3:47:d9:ef:a5:e6:28:8c:a0:2f:
                    17:0a:17:47:d0:8c:74:8a:86:ae:ce:70:1a:0f:69:
                    4a:3e:66:dc:d5:ff:97:60:83:48:ba:0e:65:67:9d:
                    d6:a9:23:86:5c:84:7c:0a:73:a9:22:82:94:4a:d8:
                    28:0c:e9:64:99:1d:fe:99:a3:4c:11:4a:2d:aa:77:
                    b4:eb:04:a4:ff:b7:d1:4f:50:c1:cc:67:68:fc:e3:
                    ee:e2:d0:23:14:20:0f:89:b4:83:f0:26:c3:9d:0f:
                    56:19:1e:c3:90:98:10:62:86:d3:00:d8:60:f8:ac:
                    ba:3d:ea:a7:4b:55:f2:52:f6:c5:f4:f3:c5:0b:e7:
                    2d:c3:d0:d0:71:69:61:e3:d4:32:8c:af:c1:88:90:
                    eb:b1:4f:e5:03:63:f8:77:3c:6c:56:0c:b3:05:57:
                    1a:1f:50:60:d4:49:22:10:e2:e5:3e:03:4a:9c:3f:
                    98:8c:2b:40:dd:11:b3:06:10:c5:74:cf:fc:08:5f:
                    e8:7d:22:c7:d9:f5:0a:90:aa:e9:4d:6b:3d:87:16:
                    ce:c6:da:d3:16:1c:17:39:2d:a8:01:85:a7:a8:7a:
                    85:4d
                Exponent: 65537 (0x10001)
        X509v3 extensions:
            X509v3 Basic Constraints: 
                CA:FALSE
            Netscape Comment: 
                OpenSSL Generated Certificate
            X509v3 Subject Key Identifier: 
                E7:2E:38:3A:30:66:DE:B1:7B:C7:B6:6A:18:9E:EB:23:D6:39:F1:C6
            X509v3 Authority Key Identifier: 
                keyid:83:8F:B1:E8:AB:B4:FE:BC:99:8B:64:34:B6:D8:BE:25:E2:16:45:CA

    Signature Algorithm: sha256WithRSAEncryption
         02:f8:85:6e:15:59:99:7b:96:a5:02:ab:7c:00:25:c7:60:bc:
         44:93:5b:d5:d4:30:09:4c:3e:62:f4:b8:61:2b:05:28:6e:f6:
         ef:54:66:d7:ce:0b:12:54:12:2e:0c:01:d7:2c:3b:2d:59:b4:
         cb:02:d3:7f:1c:e0:d1:27:2b:97:84:06:1b:b6:4b:c6:7d:43:
         8d:48:76:3d:f9:e8:3f:9d:c8:29:fe:e1:85:06:31:3a:10:26:
         af:59:af:af:4e:f0:52:dc:77:5e:ba:aa:bb:dc:5f:ba:5d:a3:
         85:de:e8:5a:2f:0c:a4:ff:07:09:0c:f6:69:41:ac:9f:20:30:
         42:98:e6:20:89:a4:59:10:7a:b7:a5:4c:9d:50:a8:1c:25:15:
         56:31:5b:2d:b7:30:cd:a1:8f:5b:c8:42:d4:3b:9e:7c:22:3e:
         7b:af:52:52:4f:ab:e7:6c:8a:d6:66:90:ad:a2:f9:b1:70:1c:
         c6:b3:c7:a8:55:80:05:3d:aa:50:6f:63:00:c0:1a:a1:9d:99:
         06:5e:0c:37:95:9c:38:b7:9e:2c:d0:7a:5a:df:cb:7c:93:7f:
         bd:dc:09:8e:11:8d:0f:41:6a:70:c8:7c:3f:68:e5:93:74:76:
         86:e8:0d:f0:9b:98:8e:09:21:31:19:e7:2d:4b:d6:8e:f7:13:
         56:b4:d1:cd
-----BEGIN CERTIFICATE-----
MIIDzjCCAragAwIBAgIBATANBgkqhkiG9w0BAQsFADByMQswCQYDVQQGEwJCQTEL
MAkGA1UECAwCUlMxCzAJBgNVBAcMAkJMMQwwCgYDVQQKDANFVEYxDjAMBgNVBAsM
BUVURkJMMQ4wDAYDVQQDDAVFVEZCTDEbMBkGCSqGSIb3DQEJARYMY2FAZXRmYmwu
bmV0MB4XDTE4MDMwNTIxNTIwMFoXDTE5MDMwNTIxNTIwMFowZjELMAkGA1UEBhMC
QkExCzAJBgNVBAgMAlJTMQwwCgYDVQQKDANFVEYxDjAMBgNVBAsMBUVURkJMMQ4w
DAYDVQQDDAVldGZibDEcMBoGCSqGSIb3DQEJARYNYXBwQGV0ZmJsLm5ldDCCASIw
DQYJKoZIhvcNAQEBBQADggEPADCCAQoCggEBAM/By6UrxN6HqXUV5O40eGZnsuPZ
VsKxC/Mt+EH+eGWOLgyzR9nvpeYojKAvFwoXR9CMdIqGrs5wGg9pSj5m3NX/l2CD
SLoOZWed1qkjhlyEfApzqSKClErYKAzpZJkd/pmjTBFKLap3tOsEpP+30U9Qwcxn
aPzj7uLQIxQgD4m0g/Amw50PVhkew5CYEGKG0wDYYPisuj3qp0tV8lL2xfTzxQvn
LcPQ0HFpYePUMoyvwYiQ67FP5QNj+Hc8bFYMswVXGh9QYNRJIhDi5T4DSpw/mIwr
QN0RswYQxXTP/Ahf6H0ix9n1CpCq6U1rPYcWzsba0xYcFzktqAGFp6h6hU0CAwEA
AaN7MHkwCQYDVR0TBAIwADAsBglghkgBhvhCAQ0EHxYdT3BlblNTTCBHZW5lcmF0
ZWQgQ2VydGlmaWNhdGUwHQYDVR0OBBYEFOcuODowZt6xe8e2ahie6yPWOfHGMB8G
A1UdIwQYMBaAFIOPseirtP68mYtkNLbYviXiFkXKMA0GCSqGSIb3DQEBCwUAA4IB
AQAC+IVuFVmZe5alAqt8ACXHYLxEk1vV1DAJTD5i9LhhKwUobvbvVGbXzgsSVBIu
DAHXLDstWbTLAtN/HODRJyuXhAYbtkvGfUONSHY9+eg/ncgp/uGFBjE6ECavWa+v
TvBS3Hdeuqq73F+6XaOF3uhaLwyk/wcJDPZpQayfIDBCmOYgiaRZEHq3pUydUKgc
JRVWMVsttzDNoY9byELUO558Ij57r1JST6vnbIrWZpCtovmxcBzGs8eoVYAFPapQ
b2MAwBqhnZkGXgw3lZw4t54s0Hpa38t8k3+93AmOEY0PQWpwyHw/aOWTdHaG6A3w
m5iOCSExGectS9aO9xNWtNHN
-----END CERTIFICATE-----
