Certificate:
    Data:
        Version: 3 (0x2)
        Serial Number: 4 (0x4)
    Signature Algorithm: sha256WithRSAEncryption
        Issuer: C=BA, ST=RS, L=BL, O=ETF, OU=ETFBL, CN=ETFBL/emailAddress=ca@etfbl.net
        Validity
            Not Before: Mar  5 21:56:30 2018 GMT
            Not After : Mar  5 21:56:30 2019 GMT
        Subject: C=BA, ST=RS, O=ETF, OU=ETFBL, CN=etfbl/emailAddress=semaniq@etfbl.net
        Subject Public Key Info:
            Public Key Algorithm: rsaEncryption
                Public-Key: (2048 bit)
                Modulus:
                    00:b5:d0:85:c0:30:03:a3:3f:b7:20:3c:7b:99:fb:
                    0a:72:d4:9b:90:c4:c3:66:a7:a1:0a:74:43:3b:f8:
                    38:44:45:26:e9:49:6a:82:d0:d8:06:48:64:57:d3:
                    a6:ac:5b:42:64:6b:df:df:e1:d3:cf:9c:82:e5:56:
                    d6:ff:31:6f:45:56:f1:b4:0c:84:f1:4b:36:20:f6:
                    19:89:58:35:ee:14:06:0f:41:e9:7a:66:c8:e6:0a:
                    bc:f9:4e:47:d3:58:ff:47:44:b4:03:ad:de:af:b1:
                    7e:84:4a:5a:e9:9b:16:8c:a2:25:f8:ba:04:63:ba:
                    bb:e2:35:e2:4e:22:da:19:bc:37:d6:c7:a8:5f:c8:
                    b4:1e:87:63:5a:82:65:4e:8e:93:e9:1f:ab:23:89:
                    3b:8a:4a:a7:6f:a7:e7:7e:36:da:19:e7:59:83:d1:
                    b7:d8:9e:fd:3d:4f:4a:ad:c9:64:44:e3:56:10:93:
                    9e:55:a5:93:b8:35:e3:ff:91:d1:cf:4c:a7:d2:dc:
                    4d:a9:af:8f:14:74:9f:25:a8:2d:a1:a4:c3:a2:8c:
                    46:ec:4a:92:74:24:c2:ec:de:b4:0c:ef:e9:56:e2:
                    eb:23:bb:bf:b5:63:48:d5:0b:67:50:24:9e:0f:ec:
                    c3:6d:d7:d6:e1:e1:45:52:01:c8:ab:66:56:e4:70:
                    63:9d
                Exponent: 65537 (0x10001)
        X509v3 extensions:
            X509v3 Basic Constraints: 
                CA:FALSE
            Netscape Comment: 
                OpenSSL Generated Certificate
            X509v3 Subject Key Identifier: 
                E4:6A:F4:54:6A:59:4A:DD:08:8C:6F:C2:A9:F0:13:09:2C:90:82:B2
            X509v3 Authority Key Identifier: 
                keyid:83:8F:B1:E8:AB:B4:FE:BC:99:8B:64:34:B6:D8:BE:25:E2:16:45:CA

    Signature Algorithm: sha256WithRSAEncryption
         3e:2a:35:50:5a:de:d7:a5:58:db:0e:9d:ee:85:5f:46:93:20:
         7a:98:13:3b:db:62:10:a0:e3:3d:97:21:aa:23:99:8f:fa:4d:
         41:f7:90:f4:4d:b4:4b:77:f4:99:44:9b:a3:55:8c:e4:92:87:
         06:79:20:32:44:0f:11:86:af:64:0c:6b:0a:23:70:d6:95:0c:
         59:3c:39:b5:ef:b1:18:9e:49:c2:73:56:1d:ef:10:9d:28:f5:
         c1:0e:9d:16:ce:54:84:fc:9d:28:f1:56:f7:75:91:e4:26:9c:
         fe:a5:24:2d:b1:b5:62:3f:6f:37:08:4f:e7:cd:99:c5:79:4f:
         a8:89:be:e1:4f:8c:43:a2:1a:e1:71:66:2e:fe:44:09:3c:7b:
         e1:e4:9e:ba:d4:a0:76:22:dd:0a:b6:90:d2:22:b7:36:2a:a9:
         b2:08:aa:8d:46:0c:16:69:c7:9c:a4:bf:05:f7:1c:79:d3:e2:
         37:71:66:a2:d9:bd:50:24:59:2a:56:0a:26:10:8c:5a:ef:ea:
         68:6c:79:41:76:bb:1b:b7:3d:0e:ca:70:d9:65:7e:74:e1:7f:
         96:af:3c:69:ba:7a:ae:6d:dd:9d:52:09:a1:f5:2c:d9:be:42:
         26:b2:4c:19:6c:64:84:4c:4d:8a:ff:d8:1a:8c:16:07:1a:57:
         25:f2:86:35
-----BEGIN CERTIFICATE-----
MIID0jCCArqgAwIBAgIBBDANBgkqhkiG9w0BAQsFADByMQswCQYDVQQGEwJCQTEL
MAkGA1UECAwCUlMxCzAJBgNVBAcMAkJMMQwwCgYDVQQKDANFVEYxDjAMBgNVBAsM
BUVURkJMMQ4wDAYDVQQDDAVFVEZCTDEbMBkGCSqGSIb3DQEJARYMY2FAZXRmYmwu
bmV0MB4XDTE4MDMwNTIxNTYzMFoXDTE5MDMwNTIxNTYzMFowajELMAkGA1UEBhMC
QkExCzAJBgNVBAgMAlJTMQwwCgYDVQQKDANFVEYxDjAMBgNVBAsMBUVURkJMMQ4w
DAYDVQQDDAVldGZibDEgMB4GCSqGSIb3DQEJARYRc2VtYW5pcUBldGZibC5uZXQw
ggEiMA0GCSqGSIb3DQEBAQUAA4IBDwAwggEKAoIBAQC10IXAMAOjP7cgPHuZ+wpy
1JuQxMNmp6EKdEM7+DhERSbpSWqC0NgGSGRX06asW0Jka9/f4dPPnILlVtb/MW9F
VvG0DITxSzYg9hmJWDXuFAYPQel6ZsjmCrz5TkfTWP9HRLQDrd6vsX6ESlrpmxaM
oiX4ugRjurviNeJOItoZvDfWx6hfyLQeh2NagmVOjpPpH6sjiTuKSqdvp+d+NtoZ
51mD0bfYnv09T0qtyWRE41YQk55VpZO4NeP/kdHPTKfS3E2pr48UdJ8lqC2hpMOi
jEbsSpJ0JMLs3rQM7+lW4usju7+1Y0jVC2dQJJ4P7MNt19bh4UVSAcirZlbkcGOd
AgMBAAGjezB5MAkGA1UdEwQCMAAwLAYJYIZIAYb4QgENBB8WHU9wZW5TU0wgR2Vu
ZXJhdGVkIENlcnRpZmljYXRlMB0GA1UdDgQWBBTkavRUallK3QiMb8Kp8BMJLJCC
sjAfBgNVHSMEGDAWgBSDj7Hoq7T+vJmLZDS22L4l4hZFyjANBgkqhkiG9w0BAQsF
AAOCAQEAPio1UFre16VY2w6d7oVfRpMgepgTO9tiEKDjPZchqiOZj/pNQfeQ9E20
S3f0mUSbo1WM5JKHBnkgMkQPEYavZAxrCiNw1pUMWTw5te+xGJ5JwnNWHe8QnSj1
wQ6dFs5UhPydKPFW93WR5Cac/qUkLbG1Yj9vNwhP582ZxXlPqIm+4U+MQ6Ia4XFm
Lv5ECTx74eSeutSgdiLdCraQ0iK3NiqpsgiqjUYMFmnHnKS/BfccedPiN3Fmotm9
UCRZKlYKJhCMWu/qaGx5QXa7G7c9Dspw2WV+dOF/lq88abp6rm3dnVIJofUs2b5C
JrJMGWxkhExNiv/YGowWBxpXJfKGNQ==
-----END CERTIFICATE-----
