Certificate:
    Data:
        Version: 3 (0x2)
        Serial Number: 2 (0x2)
    Signature Algorithm: sha256WithRSAEncryption
        Issuer: C=BA, ST=RS, L=BL, O=ETF, OU=ETFBL, CN=ETFBL/emailAddress=ca@etfbl.net
        Validity
            Not Before: Mar  5 21:53:39 2018 GMT
            Not After : Mar  5 21:53:39 2019 GMT
        Subject: C=BA, ST=RS, O=ETF, OU=ETFBL, CN=etfbl/emailAddress=user1@etfbl.net
        Subject Public Key Info:
            Public Key Algorithm: rsaEncryption
                Public-Key: (2048 bit)
                Modulus:
                    00:c1:f4:cd:0d:11:92:3f:87:5d:4b:9f:6a:ca:f3:
                    4c:32:a8:f0:61:d5:22:17:df:e1:57:df:36:5a:95:
                    f6:c3:1a:f8:9a:71:8f:1a:86:60:a3:d5:2e:fd:67:
                    7d:dc:b4:b6:cb:37:32:b8:1b:af:46:57:a7:26:a9:
                    37:aa:e4:18:5e:2d:a0:52:5c:69:b8:21:3d:ad:5a:
                    76:95:aa:a1:eb:27:84:f8:73:bd:9b:a0:d4:10:ad:
                    be:1f:5b:5c:4b:6a:44:c1:39:63:eb:28:1a:53:62:
                    0b:2e:be:4f:ae:18:68:a7:aa:9f:55:e1:7d:90:ca:
                    e4:f0:fc:9f:a4:ca:96:0c:ee:f1:66:d4:ee:90:8d:
                    05:eb:66:71:e6:1e:86:2c:68:35:fb:09:37:25:46:
                    e0:3b:65:02:19:43:2d:5e:82:db:f9:f3:5b:80:66:
                    ee:c9:2e:28:04:8e:ff:5e:ae:49:ca:58:40:59:9b:
                    63:70:47:44:50:00:0f:1f:cd:4c:a0:66:e9:4d:d2:
                    b7:af:23:a8:55:57:e8:14:20:50:1b:49:9a:a1:18:
                    f9:e2:4e:59:55:ae:55:d2:c3:a9:57:00:45:3b:00:
                    dd:fa:57:d6:1e:67:28:6a:f8:74:4c:db:4e:47:1f:
                    2c:49:4f:0f:9b:31:3e:8c:04:dd:0e:62:83:51:04:
                    ed:63
                Exponent: 65537 (0x10001)
        X509v3 extensions:
            X509v3 Basic Constraints: 
                CA:FALSE
            Netscape Comment: 
                OpenSSL Generated Certificate
            X509v3 Subject Key Identifier: 
                4E:69:CD:AB:3E:5E:3F:D3:D3:C2:73:F1:15:FB:80:80:3A:D7:EF:B4
            X509v3 Authority Key Identifier: 
                keyid:83:8F:B1:E8:AB:B4:FE:BC:99:8B:64:34:B6:D8:BE:25:E2:16:45:CA

    Signature Algorithm: sha256WithRSAEncryption
         79:b6:37:1c:05:09:7c:78:4f:27:cf:07:57:56:6c:2a:b6:d7:
         47:6c:ae:cb:59:2f:cd:0a:9d:57:5d:7c:4f:62:81:7d:62:d9:
         72:df:21:89:31:67:94:14:8e:a6:e8:3a:a4:82:da:f8:ae:d2:
         93:c7:ad:34:5d:bf:2a:85:c2:38:cd:39:d1:5b:67:90:33:bd:
         42:d6:9f:8c:60:b0:fc:e8:c5:59:43:81:a0:62:5f:33:71:14:
         c1:ba:bf:fb:b2:db:12:b3:68:71:d7:ef:e3:06:f3:e7:cb:4f:
         6f:a4:45:02:fe:b4:09:bc:8c:b6:21:46:14:9d:c4:c1:6c:9e:
         99:cd:11:58:1f:8c:a2:dc:8b:d6:de:78:71:c0:bf:b3:b4:32:
         5c:d0:97:01:a8:b7:1e:b5:64:82:02:a1:09:cc:ac:4d:fa:8d:
         64:7b:a0:88:cd:6c:2d:c4:29:cc:48:35:18:2f:14:4f:e5:0f:
         d1:43:f4:b5:17:bb:f8:e5:0a:45:3f:0e:82:20:f5:17:0a:8c:
         cd:5f:3d:0d:12:cf:93:24:a5:f0:f2:32:2d:de:8f:74:f7:c4:
         ff:4a:dd:ec:70:14:56:97:0e:f7:01:10:3b:f0:52:4d:2e:d5:
         a1:bc:80:8a:cd:84:fb:e0:ac:6e:f7:d4:26:7c:62:e6:10:2b:
         d5:d6:fa:6b
-----BEGIN CERTIFICATE-----
MIID0DCCArigAwIBAgIBAjANBgkqhkiG9w0BAQsFADByMQswCQYDVQQGEwJCQTEL
MAkGA1UECAwCUlMxCzAJBgNVBAcMAkJMMQwwCgYDVQQKDANFVEYxDjAMBgNVBAsM
BUVURkJMMQ4wDAYDVQQDDAVFVEZCTDEbMBkGCSqGSIb3DQEJARYMY2FAZXRmYmwu
bmV0MB4XDTE4MDMwNTIxNTMzOVoXDTE5MDMwNTIxNTMzOVowaDELMAkGA1UEBhMC
QkExCzAJBgNVBAgMAlJTMQwwCgYDVQQKDANFVEYxDjAMBgNVBAsMBUVURkJMMQ4w
DAYDVQQDDAVldGZibDEeMBwGCSqGSIb3DQEJARYPdXNlcjFAZXRmYmwubmV0MIIB
IjANBgkqhkiG9w0BAQEFAAOCAQ8AMIIBCgKCAQEAwfTNDRGSP4ddS59qyvNMMqjw
YdUiF9/hV982WpX2wxr4mnGPGoZgo9Uu/Wd93LS2yzcyuBuvRlenJqk3quQYXi2g
UlxpuCE9rVp2laqh6yeE+HO9m6DUEK2+H1tcS2pEwTlj6ygaU2ILLr5Prhhop6qf
VeF9kMrk8PyfpMqWDO7xZtTukI0F62Zx5h6GLGg1+wk3JUbgO2UCGUMtXoLb+fNb
gGbuyS4oBI7/Xq5JylhAWZtjcEdEUAAPH81MoGbpTdK3ryOoVVfoFCBQG0maoRj5
4k5ZVa5V0sOpVwBFOwDd+lfWHmcoavh0TNtORx8sSU8PmzE+jATdDmKDUQTtYwID
AQABo3sweTAJBgNVHRMEAjAAMCwGCWCGSAGG+EIBDQQfFh1PcGVuU1NMIEdlbmVy
YXRlZCBDZXJ0aWZpY2F0ZTAdBgNVHQ4EFgQUTmnNqz5eP9PTwnPxFfuAgDrX77Qw
HwYDVR0jBBgwFoAUg4+x6Ku0/ryZi2Q0tti+JeIWRcowDQYJKoZIhvcNAQELBQAD
ggEBAHm2NxwFCXx4TyfPB1dWbCq210dsrstZL80KnVddfE9igX1i2XLfIYkxZ5QU
jqboOqSC2viu0pPHrTRdvyqFwjjNOdFbZ5AzvULWn4xgsPzoxVlDgaBiXzNxFMG6
v/uy2xKzaHHX7+MG8+fLT2+kRQL+tAm8jLYhRhSdxMFsnpnNEVgfjKLci9beeHHA
v7O0MlzQlwGotx61ZIICoQnMrE36jWR7oIjNbC3EKcxINRgvFE/lD9FD9LUXu/jl
CkU/DoIg9RcKjM1fPQ0Sz5MkpfDyMi3ej3T3xP9K3exwFFaXDvcBEDvwUk0u1aG8
gIrNhPvgrG731CZ8YuYQK9XW+ms=
-----END CERTIFICATE-----
