Certificate:
    Data:
        Version: 3 (0x2)
        Serial Number: 3 (0x3)
    Signature Algorithm: sha256WithRSAEncryption
        Issuer: C=BA, ST=RS, L=BL, O=ETF, OU=ETFBL, CN=ETFBL/emailAddress=ca@etfbl.net
        Validity
            Not Before: Mar  5 21:56:18 2018 GMT
            Not After : Mar  5 21:56:18 2019 GMT
        Subject: C=BA, ST=RS, O=ETF, OU=ETFBL, CN=etfbl/emailAddress=alenseeman@hotmail.com
        Subject Public Key Info:
            Public Key Algorithm: rsaEncryption
                Public-Key: (2048 bit)
                Modulus:
                    00:d6:2f:c0:e5:e4:16:ea:f1:fb:8b:2d:ae:47:a4:
                    8a:3c:90:c1:9e:8a:95:04:60:c3:68:eb:0e:c3:7b:
                    e9:f8:c1:74:e6:f8:05:3e:a3:76:6b:60:39:0d:9f:
                    88:af:8f:c8:4f:05:8f:28:63:cd:11:6d:b5:43:cd:
                    14:27:2b:55:9b:75:f9:9a:e8:a6:e8:88:92:c1:4d:
                    2c:82:5b:63:46:80:40:32:0c:84:f3:6d:45:10:bd:
                    12:b2:c3:83:51:c3:81:54:99:1b:0c:27:81:2e:92:
                    bd:c2:8a:a3:e4:4e:32:29:b0:71:30:ca:73:78:55:
                    cb:57:9f:06:8a:58:56:70:fe:aa:8e:70:31:b8:4e:
                    e6:54:22:e7:3b:ea:a1:06:1c:5b:ea:92:53:80:cf:
                    a2:5c:21:cd:76:d1:ec:59:c0:45:a2:4c:55:9c:18:
                    07:87:c0:72:0b:dc:22:c3:a1:2f:6f:43:82:73:21:
                    d3:75:2b:cc:e3:ca:6c:7b:30:e9:78:5d:b1:65:61:
                    31:72:ed:47:59:9f:46:ff:fe:07:4e:6c:38:71:ee:
                    7f:a8:5a:40:24:82:4a:a1:c9:6d:0e:6a:22:3f:8d:
                    4f:77:9b:9f:4f:9b:fc:38:5c:ce:d7:2e:68:d8:13:
                    70:e7:d7:40:f7:04:f3:43:dc:b4:0f:20:83:70:49:
                    fa:e1
                Exponent: 65537 (0x10001)
        X509v3 extensions:
            X509v3 Basic Constraints: 
                CA:FALSE
            Netscape Comment: 
                OpenSSL Generated Certificate
            X509v3 Subject Key Identifier: 
                DB:7A:61:36:2B:5D:AD:33:E6:1D:22:64:24:3F:65:E8:72:06:7E:53
            X509v3 Authority Key Identifier: 
                keyid:83:8F:B1:E8:AB:B4:FE:BC:99:8B:64:34:B6:D8:BE:25:E2:16:45:CA

    Signature Algorithm: sha256WithRSAEncryption
         13:d7:ad:10:d7:f2:a5:0f:71:dc:e3:7c:17:99:f1:5c:23:42:
         6a:1a:5e:ca:25:47:03:fa:09:da:cd:76:61:26:b7:da:e1:5e:
         10:08:de:82:a4:2c:ca:42:b7:01:98:f9:47:51:c8:8a:56:64:
         6d:ba:bb:a6:6d:ec:21:97:0f:ae:47:dd:e1:75:16:58:20:e4:
         fa:fc:60:fc:00:8f:c2:73:ee:53:2e:63:eb:19:e0:29:0c:91:
         2c:7c:be:74:db:9e:30:75:9a:b7:97:07:29:a7:63:d3:ed:0a:
         9c:0e:fc:a1:1b:df:d1:15:09:57:11:29:bd:fe:b0:a2:48:b9:
         ad:5c:55:2b:ae:d2:1e:34:d5:92:13:f0:73:69:4c:97:7e:af:
         14:ff:d6:a5:85:78:fb:02:9d:8f:ad:0a:be:1e:da:73:7f:5f:
         0c:3c:4d:16:3a:24:56:5f:88:7d:1d:26:9e:ff:f1:9f:63:75:
         39:b0:25:c9:8d:db:32:fc:98:30:a9:a5:27:63:74:cd:91:bb:
         1d:33:7e:43:5d:c1:22:2a:8d:a7:49:90:ff:c7:39:0c:b0:fe:
         3d:b0:32:ba:39:21:9d:aa:fc:c6:69:63:fc:7a:69:a1:09:ff:
         92:80:cd:5c:6d:b8:c0:11:d5:ba:e4:91:30:35:2f:ce:42:52:
         78:98:20:b7
-----BEGIN CERTIFICATE-----
MIID1zCCAr+gAwIBAgIBAzANBgkqhkiG9w0BAQsFADByMQswCQYDVQQGEwJCQTEL
MAkGA1UECAwCUlMxCzAJBgNVBAcMAkJMMQwwCgYDVQQKDANFVEYxDjAMBgNVBAsM
BUVURkJMMQ4wDAYDVQQDDAVFVEZCTDEbMBkGCSqGSIb3DQEJARYMY2FAZXRmYmwu
bmV0MB4XDTE4MDMwNTIxNTYxOFoXDTE5MDMwNTIxNTYxOFowbzELMAkGA1UEBhMC
QkExCzAJBgNVBAgMAlJTMQwwCgYDVQQKDANFVEYxDjAMBgNVBAsMBUVURkJMMQ4w
DAYDVQQDDAVldGZibDElMCMGCSqGSIb3DQEJARYWYWxlbnNlZW1hbkBob3RtYWls
LmNvbTCCASIwDQYJKoZIhvcNAQEBBQADggEPADCCAQoCggEBANYvwOXkFurx+4st
rkekijyQwZ6KlQRgw2jrDsN76fjBdOb4BT6jdmtgOQ2fiK+PyE8FjyhjzRFttUPN
FCcrVZt1+ZropuiIksFNLIJbY0aAQDIMhPNtRRC9ErLDg1HDgVSZGwwngS6SvcKK
o+ROMimwcTDKc3hVy1efBopYVnD+qo5wMbhO5lQi5zvqoQYcW+qSU4DPolwhzXbR
7FnARaJMVZwYB4fAcgvcIsOhL29DgnMh03UrzOPKbHsw6XhdsWVhMXLtR1mfRv/+
B05sOHHuf6haQCSCSqHJbQ5qIj+NT3ebn0+b/DhcztcuaNgTcOfXQPcE80PctA8g
g3BJ+uECAwEAAaN7MHkwCQYDVR0TBAIwADAsBglghkgBhvhCAQ0EHxYdT3BlblNT
TCBHZW5lcmF0ZWQgQ2VydGlmaWNhdGUwHQYDVR0OBBYEFNt6YTYrXa0z5h0iZCQ/
ZehyBn5TMB8GA1UdIwQYMBaAFIOPseirtP68mYtkNLbYviXiFkXKMA0GCSqGSIb3
DQEBCwUAA4IBAQAT160Q1/KlD3Hc43wXmfFcI0JqGl7KJUcD+gnazXZhJrfa4V4Q
CN6CpCzKQrcBmPlHUciKVmRturumbewhlw+uR93hdRZYIOT6/GD8AI/Cc+5TLmPr
GeApDJEsfL50254wdZq3lwcpp2PT7QqcDvyhG9/RFQlXESm9/rCiSLmtXFUrrtIe
NNWSE/BzaUyXfq8U/9alhXj7Ap2PrQq+Htpzf18MPE0WOiRWX4h9HSae//GfY3U5
sCXJjdsy/JgwqaUnY3TNkbsdM35DXcEiKo2nSZD/xzkMsP49sDK6OSGdqvzGaWP8
emmhCf+SgM1cbbjAEdW65JEwNS/OQlJ4mCC3
-----END CERTIFICATE-----
